; Function Attrs: mustprogress uwtable
define noundef i64 @_Z13gmx_fio_ftellP8t_fileio(ptr noundef %0) local_unnamed_addr #0 {
  %2 = getelementptr inbounds nuw i8, ptr %0, i64 88
  tail call void @_Z14tMPI_Lock_lockP9tMPI_Lock(ptr noundef nonnull %2)
  %3 = load ptr, ptr %0, align 8, !tbaa !14
  %.not = icmp eq ptr %3, null
  br i1 %.not, label %6, label %4

4:                                                ; preds = %1
  %5 = tail call noundef i64 @_Z9gmx_ftellP8_IO_FILE(ptr noundef nonnull %3)
  br label %6

6:                                                ; preds = %4, %1
  %.0 = phi i64 [ %5, %4 ], [ 0, %1 ]
  tail call void @_Z16tMPI_Lock_unlockP9tMPI_Lock(ptr noundef nonnull %2)
  ret i64 %.0
}